target datalayout = "e-m:e-p270:32:32-p271:32:32-p272:64:64-i64:64-i128:128-f80:128-n8:16:32:64-S128"
target triple = "x86_64-pc-linux-gnu"

%struct.Hacl_Hash_SHA3_hash_buf_s = type { i8, ptr }
%struct.Hacl_Hash_SHA3_state_t_s = type { %struct.Hacl_Hash_SHA3_hash_buf_s, ptr, i64 }

@.str.1 = private unnamed_addr constant [42 x i8] c"../cpython/Modules/_hacl/Hacl_Hash_SHA3.c\00", align 1
@stderr = external global ptr, align 8
@.str.2 = private unnamed_addr constant [35 x i8] c"KaRaMeL incomplete match at %s:%d\0A\00", align 1

; Function Attrs: nounwind uwtable
define internal i32 @hash_len(i8 noundef zeroext %0) #0 {
  %2 = alloca i32, align 4
  %3 = alloca i8, align 1
  store i8 %0, ptr %3, align 1, !tbaa !3
  %4 = load i8, ptr %3, align 1, !tbaa !3
  %5 = zext i8 %4 to i32
  switch i32 %5, label %10 [
    i32 9, label %6
    i32 8, label %7
    i32 10, label %8
    i32 11, label %9
  ]

6:                                                ; preds = %1
  store i32 28, ptr %2, align 4
  br label %13

7:                                                ; preds = %1
  store i32 32, ptr %2, align 4
  br label %13

8:                                                ; preds = %1
  store i32 48, ptr %2, align 4
  br label %13

9:                                                ; preds = %1
  store i32 64, ptr %2, align 4
  br label %13

10:                                               ; preds = %1
  %11 = load ptr, ptr @stderr, align 8, !tbaa !15
  %12 = call i32 (ptr, ptr, ...) @fprintf(ptr noundef %11, ptr noundef @.str.2, ptr noundef @.str.1, i32 noundef 231) #10
  call void @exit(i32 noundef 253) #11
  unreachable

13:                                               ; preds = %9, %8, %7, %6
  %14 = load i32, ptr %2, align 4
  ret i32 %14
}

; Function Attrs: nounwind uwtable
define hidden zeroext i8 @python_hashlib_Hacl_Hash_SHA3_get_alg(ptr noundef %0) #0 {
  %2 = alloca ptr, align 8
  %3 = alloca %struct.Hacl_Hash_SHA3_hash_buf_s, align 8
  store ptr %0, ptr %2, align 8, !tbaa !28
  call void @llvm.lifetime.start.p0(i64 16, ptr %3) #10
  %4 = load ptr, ptr %2, align 8, !tbaa !28
  %5 = getelementptr inbounds nuw %struct.Hacl_Hash_SHA3_state_t_s, ptr %4, i32 0, i32 0
  call void @llvm.memcpy.p0.p0.i64(ptr align 8 %3, ptr align 8 %5, i64 16, i1 false), !tbaa.struct !30
  %6 = getelementptr inbounds nuw %struct.Hacl_Hash_SHA3_hash_buf_s, ptr %3, i32 0, i32 0
  %7 = load i8, ptr %6, align 8, !tbaa !31
  call void @llvm.lifetime.end.p0(i64 16, ptr %3) #10
  ret i8 %7
}

; Function Attrs: nounwind uwtable
define hidden zeroext i8 @python_hashlib_Hacl_Hash_SHA3_digest(ptr noundef %0, ptr noundef %1) #0 {
  %3 = alloca i8, align 1
  %4 = alloca ptr, align 8
  %5 = alloca ptr, align 8
  %6 = alloca i8, align 1
  %7 = alloca i32, align 4
  store ptr %0, ptr %4, align 8, !tbaa !28
  store ptr %1, ptr %5, align 8, !tbaa !9
  call void @llvm.lifetime.start.p0(i64 1, ptr %6) #10
  %8 = load ptr, ptr %4, align 8, !tbaa !28
  %9 = call zeroext i8 @python_hashlib_Hacl_Hash_SHA3_get_alg(ptr noundef %8)
  store i8 %9, ptr %6, align 1, !tbaa !3
  %10 = load i8, ptr %6, align 1, !tbaa !3
  %11 = zext i8 %10 to i32
  %12 = icmp eq i32 %11, 12
  br i1 %12, label %17, label %13

13:                                               ; preds = %2
  %14 = load i8, ptr %6, align 1, !tbaa !3
  %15 = zext i8 %14 to i32
  %16 = icmp eq i32 %15, 13
  br i1 %16, label %17, label %18

17:                                               ; preds = %13, %2
  store i8 1, ptr %3, align 1
  store i32 1, ptr %7, align 4
  br label %24

18:                                               ; preds = %13
  %19 = load i8, ptr %6, align 1, !tbaa !3
  %20 = load ptr, ptr %4, align 8, !tbaa !28
  %21 = load ptr, ptr %5, align 8, !tbaa !9
  %22 = load i8, ptr %6, align 1, !tbaa !3
  %23 = call i32 @hash_len(i8 noundef zeroext %22)
  call void @digest_(i8 noundef zeroext %19, ptr noundef %20, ptr noundef %21, i32 noundef %23)
  store i8 0, ptr %3, align 1
  store i32 1, ptr %7, align 4
  br label %24

24:                                               ; preds = %18, %17
  call void @llvm.lifetime.end.p0(i64 1, ptr %6) #10
  %25 = load i8, ptr %3, align 1
  ret i8 %25
}