; Function Attrs: nofree nounwind uwtable
define hidden zeroext range(i8 0, 2) i8 @python_hashlib_Hacl_Hash_SHA3_digest(ptr noundef readonly captures(none) %0, ptr noundef writeonly captures(none) %1) local_unnamed_addr #0 {
  %.sroa.0.0.copyload.i = load i8, ptr %0, align 8, !tbaa !18
  %3 = and i8 %.sroa.0.0.copyload.i, -2
  %or.cond = icmp eq i8 %3, 12
  br i1 %or.cond, label %10, label %4

4:                                                ; preds = %2
  %switch.tableidx = add i8 %.sroa.0.0.copyload.i, -8
  %5 = icmp ult i8 %switch.tableidx, 4
  br i1 %5, label %switch.lookup, label %6

6:                                                ; preds = %4
  %7 = load ptr, ptr @stderr, align 8, !tbaa !3
  %8 = tail call i32 (ptr, ptr, ...) @fprintf(ptr noundef %7, ptr noundef nonnull @.str.2, ptr noundef nonnull @.str.1, i32 noundef 231) #17
  tail call void @exit(i32 noundef 253) #18
  unreachable

switch.lookup:                                    ; preds = %4
  %9 = zext nneg i8 %switch.tableidx to i64
  %switch.gep = getelementptr inbounds nuw [4 x i32], ptr @switch.table.python_hashlib_Hacl_Hash_SHA3_hash_len, i64 0, i64 %9
  %switch.load = load i32, ptr %switch.gep, align 4
  tail call fastcc void @digest_(i8 noundef zeroext %.sroa.0.0.copyload.i, ptr noundef nonnull %0, ptr noundef %1, i32 noundef %switch.load)
  br label %10

10:                                               ; preds = %2, %switch.lookup
  %.0 = phi i8 [ 0, %switch.lookup ], [ 1, %2 ]
  ret i8 %.0
}